target datalayout = "e-m:e-p270:32:32-p271:32:32-p272:64:64-i64:64-i128:128-f80:128-n8:16:32:64-S128"
target triple = "x86_64-pc-linux-gnu"

%"class.google::protobuf::internal::LogMessage" = type { i32, ptr, i32, %"class.std::__cxx11::basic_string" }
%"class.std::__cxx11::basic_string" = type { %"struct.std::__cxx11::basic_string<char>::_Alloc_hider", i64, %union.anon }
%"struct.std::__cxx11::basic_string<char>::_Alloc_hider" = type { ptr }
%union.anon = type { i64, [8 x i8] }
%"class.google::protobuf::internal::LogFinisher" = type { i8 }
%"class.google::protobuf::io::EpsCopyOutputStream" = type <{ ptr, ptr, [32 x i8], ptr, i8, i8, i8, [5 x i8] }>

@.str.21 = private unnamed_addr constant [147 x i8] c"generated/home/dtcxzyw/WorkSpace/Projects/compilers/llvm-opt-benchmark/bench/opencv/opencv/3rdparty/protobuf/src/google/protobuf/io/coded_stream.h\00", align 1
@.str.22 = private unnamed_addr constant [41 x i8] c"CHECK failed: ptr <= end_ + kSlopBytes: \00", align 1

; Function Attrs: mustprogress nounwind uwtable
define linkonce_odr hidden noundef ptr @_ZN6google8protobuf2io19EpsCopyOutputStream5ErrorEv(ptr noundef nonnull align 8 dereferenceable(59) %0) #4 comdat align 2 {
  %2 = alloca ptr, align 8
  store ptr %0, ptr %2, align 8, !tbaa !76
  %3 = load ptr, ptr %2, align 8
  %4 = getelementptr inbounds nuw %"class.google::protobuf::io::EpsCopyOutputStream", ptr %3, i32 0, i32 4
  store i8 1, ptr %4, align 8, !tbaa !84
  %5 = getelementptr inbounds nuw %"class.google::protobuf::io::EpsCopyOutputStream", ptr %3, i32 0, i32 2
  %6 = getelementptr inbounds [32 x i8], ptr %5, i64 0, i64 0
  %7 = getelementptr inbounds i8, ptr %6, i64 16
  %8 = getelementptr inbounds nuw %"class.google::protobuf::io::EpsCopyOutputStream", ptr %3, i32 0, i32 0
  store ptr %7, ptr %8, align 8, !tbaa !82
  %9 = getelementptr inbounds nuw %"class.google::protobuf::io::EpsCopyOutputStream", ptr %3, i32 0, i32 2
  %10 = getelementptr inbounds [32 x i8], ptr %9, i64 0, i64 0
  ret ptr %10
}

; Function Attrs: mustprogress uwtable
define linkonce_odr hidden noundef ptr @_ZN6google8protobuf2io19EpsCopyOutputStream8WriteRawEPKviPh(ptr noundef nonnull align 8 dereferenceable(59) %0, ptr noundef %1, i32 noundef %2, ptr noundef %3) #5 comdat align 2 {
  %5 = alloca ptr, align 8
  %6 = alloca ptr, align 8
  %7 = alloca ptr, align 8
  %8 = alloca i32, align 4
  %9 = alloca ptr, align 8
  store ptr %0, ptr %6, align 8, !tbaa !76
  store ptr %1, ptr %7, align 8, !tbaa !41
  store i32 %2, ptr %8, align 4, !tbaa !18
  store ptr %3, ptr %9, align 8, !tbaa !50
  %10 = load ptr, ptr %6, align 8
  %11 = getelementptr inbounds nuw %"class.google::protobuf::io::EpsCopyOutputStream", ptr %10, i32 0, i32 0
  %12 = load ptr, ptr %11, align 8, !tbaa !82
  %13 = load ptr, ptr %9, align 8, !tbaa !50
  %14 = ptrtoint ptr %12 to i64
  %15 = ptrtoint ptr %13 to i64
  %16 = sub i64 %14, %15
  %17 = load i32, ptr %8, align 4, !tbaa !18
  %18 = sext i32 %17 to i64
  %19 = icmp slt i64 %16, %18
  %20 = zext i1 %19 to i64
  %21 = call i64 @llvm.expect.i64(i64 %20, i64 0)
  %22 = icmp ne i64 %21, 0
  br i1 %22, label %23, label %28

23:                                               ; preds = %4
  %24 = load ptr, ptr %7, align 8, !tbaa !41
  %25 = load i32, ptr %8, align 4, !tbaa !18
  %26 = load ptr, ptr %9, align 8, !tbaa !50
  %27 = call noundef ptr @_ZN6google8protobuf2io19EpsCopyOutputStream16WriteRawFallbackEPKviPh(ptr noundef nonnull align 8 dereferenceable(59) %10, ptr noundef %24, i32 noundef %25, ptr noundef %26)
  store ptr %27, ptr %5, align 8
  br label %37

28:                                               ; preds = %4
  %29 = load ptr, ptr %9, align 8, !tbaa !50
  %30 = load ptr, ptr %7, align 8, !tbaa !41
  %31 = load i32, ptr %8, align 4, !tbaa !18
  %32 = sext i32 %31 to i64
  call void @llvm.memcpy.p0.p0.i64(ptr align 1 %29, ptr align 1 %30, i64 %32, i1 false)
  %33 = load ptr, ptr %9, align 8, !tbaa !50
  %34 = load i32, ptr %8, align 4, !tbaa !18
  %35 = sext i32 %34 to i64
  %36 = getelementptr inbounds i8, ptr %33, i64 %35
  store ptr %36, ptr %5, align 8
  br label %37

37:                                               ; preds = %28, %23
  %38 = load ptr, ptr %5, align 8
  ret ptr %38
}

; Function Attrs: mustprogress uwtable
define linkonce_odr hidden noundef i64 @_ZNK6google8protobuf2io19EpsCopyOutputStream7GetSizeEPh(ptr noundef nonnull align 8 dereferenceable(59) %0, ptr noundef %1) #5 comdat align 2 personality ptr @__gxx_personality_v0 {
  %3 = alloca ptr, align 8
  %4 = alloca ptr, align 8
  %5 = alloca %"class.google::protobuf::internal::LogMessage", align 8
  %6 = alloca i1, align 1
  %7 = alloca i1, align 1
  %8 = alloca ptr, align 8
  %9 = alloca i32, align 4
  %10 = alloca %"class.google::protobuf::internal::LogFinisher", align 1
  store ptr %0, ptr %3, align 8, !tbaa !76
  store ptr %1, ptr %4, align 8, !tbaa !50
  %11 = load ptr, ptr %3, align 8
  br label %12

12:                                               ; preds = %30, %2
  br i1 false, label %13, label %46

13:                                               ; preds = %12
  %14 = load ptr, ptr %4, align 8, !tbaa !50
  %15 = getelementptr inbounds nuw %"class.google::protobuf::io::EpsCopyOutputStream", ptr %11, i32 0, i32 0
  %16 = load ptr, ptr %15, align 8, !tbaa !82
  %17 = getelementptr inbounds i8, ptr %16, i64 16
  %18 = icmp ule ptr %14, %17
  store i1 false, ptr %6, align 1
  store i1 false, ptr %7, align 1
  call void @llvm.lifetime.start.p0(i64 1, ptr %10) #3
  br i1 %18, label %19, label %20

19:                                               ; preds = %13
  br label %24

20:                                               ; preds = %13
  call void @llvm.lifetime.start.p0(i64 56, ptr %5) #3
  store i1 true, ptr %6, align 1
  call void @_ZN6google8protobuf8internal10LogMessageC1ENS0_8LogLevelEPKci(ptr noundef nonnull align 8 dereferenceable(56) %5, i32 noundef 3, ptr noundef @.str.21, i32 noundef 856)
  store i1 true, ptr %7, align 1
  %21 = invoke noundef nonnull align 8 dereferenceable(56) ptr @_ZN6google8protobuf8internal10LogMessagelsEPKc(ptr noundef nonnull align 8 dereferenceable(56) %5, ptr noundef @.str.22)
          to label %22 unwind label %31

22:                                               ; preds = %20
  invoke void @_ZN6google8protobuf8internal11LogFinisheraSERNS1_10LogMessageE(ptr noundef nonnull align 1 dereferenceable(1) %10, ptr noundef nonnull align 8 dereferenceable(56) %21)
          to label %23 unwind label %35

23:                                               ; preds = %22
  br label %24

24:                                               ; preds = %23, %19
  call void @llvm.lifetime.end.p0(i64 1, ptr %10) #3
  %25 = load i1, ptr %7, align 1
  br i1 %25, label %26, label %27

26:                                               ; preds = %24
  call void @_ZN6google8protobuf8internal10LogMessageD1Ev(ptr noundef nonnull align 8 dereferenceable(56) %5) #3
  br label %27

27:                                               ; preds = %26, %24
  %28 = load i1, ptr %6, align 1
  br i1 %28, label %29, label %30

29:                                               ; preds = %27
  call void @llvm.lifetime.end.p0(i64 56, ptr %5) #3
  br label %30

30:                                               ; preds = %29, %27
  br label %12, !llvm.loop !101

31:                                               ; preds = %20
  %32 = landingpad { ptr, i32 }
          cleanup
  %33 = extractvalue { ptr, i32 } %32, 0
  store ptr %33, ptr %8, align 8
  %34 = extractvalue { ptr, i32 } %32, 1
  store i32 %34, ptr %9, align 4
  br label %39

35:                                               ; preds = %22
  %36 = landingpad { ptr, i32 }
          cleanup
  %37 = extractvalue { ptr, i32 } %36, 0
  store ptr %37, ptr %8, align 8
  %38 = extractvalue { ptr, i32 } %36, 1
  store i32 %38, ptr %9, align 4
  call void @llvm.lifetime.end.p0(i64 1, ptr %10) #3
  br label %39

39:                                               ; preds = %35, %31
  %40 = load i1, ptr %7, align 1
  br i1 %40, label %41, label %42

41:                                               ; preds = %39
  call void @_ZN6google8protobuf8internal10LogMessageD1Ev(ptr noundef nonnull align 8 dereferenceable(56) %5) #3
  br label %42

42:                                               ; preds = %41, %39
  %43 = load i1, ptr %6, align 1
  br i1 %43, label %44, label %45

44:                                               ; preds = %42
  call void @llvm.lifetime.end.p0(i64 56, ptr %5) #3
  br label %45

45:                                               ; preds = %44, %42
  br label %54

46:                                               ; preds = %12
  %47 = getelementptr inbounds nuw %"class.google::protobuf::io::EpsCopyOutputStream", ptr %11, i32 0, i32 0
  %48 = load ptr, ptr %47, align 8, !tbaa !82
  %49 = getelementptr inbounds i8, ptr %48, i64 16
  %50 = load ptr, ptr %4, align 8, !tbaa !50
  %51 = ptrtoint ptr %49 to i64
  %52 = ptrtoint ptr %50 to i64
  %53 = sub i64 %51, %52
  ret i64 %53

54:                                               ; preds = %45
  %55 = load ptr, ptr %8, align 8
  %56 = load i32, ptr %9, align 4
  %57 = insertvalue { ptr, i32 } poison, ptr %55, 0
  %58 = insertvalue { ptr, i32 } %57, i32 %56, 1
  resume { ptr, i32 } %58
}

; Function Attrs: mustprogress uwtable
define hidden noundef ptr @_ZN6google8protobuf2io19EpsCopyOutputStream15WriteAliasedRawEPKviPh(ptr noundef nonnull align 8 dereferenceable(59) %0, ptr noundef %1, i32 noundef %2, ptr noundef %3) #5 align 2 {
  %5 = alloca ptr, align 8
  %6 = alloca ptr, align 8
  %7 = alloca ptr, align 8
  %8 = alloca i32, align 4
  %9 = alloca ptr, align 8
  store ptr %0, ptr %6, align 8, !tbaa !76
  store ptr %1, ptr %7, align 8, !tbaa !41
  store i32 %2, ptr %8, align 4, !tbaa !18
  store ptr %3, ptr %9, align 8, !tbaa !50
  %10 = load ptr, ptr %6, align 8
  %11 = load i32, ptr %8, align 4, !tbaa !18
  %12 = sext i32 %11 to i64
  %13 = load ptr, ptr %9, align 8, !tbaa !50
  %14 = call noundef i64 @_ZNK6google8protobuf2io19EpsCopyOutputStream7GetSizeEPh(ptr noundef nonnull align 8 dereferenceable(59) %10, ptr noundef %13)
  %15 = icmp slt i64 %12, %14
  br i1 %15, label %16, label %21

16:                                               ; preds = %4
  %17 = load ptr, ptr %7, align 8, !tbaa !41
  %18 = load i32, ptr %8, align 4, !tbaa !18
  %19 = load ptr, ptr %9, align 8, !tbaa !50
  %20 = call noundef ptr @_ZN6google8protobuf2io19EpsCopyOutputStream8WriteRawEPKviPh(ptr noundef nonnull align 8 dereferenceable(59) %10, ptr noundef %17, i32 noundef %18, ptr noundef %19)
  store ptr %20, ptr %5, align 8
  br label %36

21:                                               ; preds = %4
  %22 = load ptr, ptr %9, align 8, !tbaa !50
  %23 = call noundef ptr @_ZN6google8protobuf2io19EpsCopyOutputStream4TrimEPh(ptr noundef nonnull align 8 dereferenceable(59) %10, ptr noundef %22)
  store ptr %23, ptr %9, align 8, !tbaa !50
  %24 = getelementptr inbounds nuw %"class.google::protobuf::io::EpsCopyOutputStream", ptr %10, i32 0, i32 3
  %25 = load ptr, ptr %24, align 8, !tbaa !78
  %26 = load ptr, ptr %7, align 8, !tbaa !41
  %27 = load i32, ptr %8, align 4, !tbaa !18
  %28 = load ptr, ptr %25, align 8, !tbaa !19
  %29 = getelementptr inbounds ptr, ptr %28, i64 5
  %30 = load ptr, ptr %29, align 8
  %31 = call noundef zeroext i1 %30(ptr noundef nonnull align 8 dereferenceable(8) %25, ptr noundef %26, i32 noundef %27)
  br i1 %31, label %32, label %34

32:                                               ; preds = %21
  %33 = load ptr, ptr %9, align 8, !tbaa !50
  store ptr %33, ptr %5, align 8
  br label %36

34:                                               ; preds = %21
  %35 = call noundef ptr @_ZN6google8protobuf2io19EpsCopyOutputStream5ErrorEv(ptr noundef nonnull align 8 dereferenceable(59) %10)
  store ptr %35, ptr %5, align 8
  br label %36

36:                                               ; preds = %34, %32, %16
  %37 = load ptr, ptr %5, align 8
  ret ptr %37
}