; Function Attrs: mustprogress uwtable
define hidden noundef ptr @_ZN6google8protobuf2io19EpsCopyOutputStream15WriteAliasedRawEPKviPh(ptr noundef nonnull align 8 dereferenceable(59) %0, ptr noundef %1, i32 noundef %2, ptr noundef %3) local_unnamed_addr #4 align 2 personality ptr @__gxx_personality_v0 {
  %5 = sext i32 %2 to i64
  %6 = load ptr, ptr %0, align 8, !tbaa !57
  %7 = getelementptr inbounds nuw i8, ptr %6, i64 16
  %8 = ptrtoint ptr %7 to i64
  %9 = ptrtoint ptr %3 to i64
  %10 = sub i64 %8, %9
  %11 = icmp sgt i64 %10, %5
  br i1 %11, label %12, label %20

12:                                               ; preds = %4
  %13 = ptrtoint ptr %6 to i64
  %14 = sub i64 %13, %9
  %15 = icmp slt i64 %14, %5
  br i1 %15, label %16, label %18, !prof !59

16:                                               ; preds = %12
  %17 = tail call noundef ptr @_ZN6google8protobuf2io19EpsCopyOutputStream16WriteRawFallbackEPKviPh(ptr noundef nonnull align 8 dereferenceable(59) %0, ptr noundef %1, i32 noundef %2, ptr noundef %3)
  br label %_ZN6google8protobuf2io19EpsCopyOutputStream8WriteRawEPKviPh.exit

18:                                               ; preds = %12
  tail call void @llvm.memcpy.p0.p0.i64(ptr align 1 %3, ptr align 1 %1, i64 %5, i1 false)
  %19 = getelementptr inbounds i8, ptr %3, i64 %5
  br label %_ZN6google8protobuf2io19EpsCopyOutputStream8WriteRawEPKviPh.exit

20:                                               ; preds = %4
  %21 = tail call noundef ptr @_ZN6google8protobuf2io19EpsCopyOutputStream4TrimEPh(ptr noundef nonnull align 8 dereferenceable(59) %0, ptr noundef %3)
  %22 = getelementptr inbounds nuw i8, ptr %0, i64 48
  %23 = load ptr, ptr %22, align 8, !tbaa !53
  %24 = load ptr, ptr %23, align 8, !tbaa !18
  %25 = getelementptr inbounds nuw i8, ptr %24, i64 40
  %26 = load ptr, ptr %25, align 8
  %27 = tail call noundef zeroext i1 %26(ptr noundef nonnull align 8 dereferenceable(8) %23, ptr noundef %1, i32 noundef %2)
  br i1 %27, label %_ZN6google8protobuf2io19EpsCopyOutputStream8WriteRawEPKviPh.exit, label %28

28:                                               ; preds = %20
  %29 = getelementptr inbounds nuw i8, ptr %0, i64 56
  store i8 1, ptr %29, align 8, !tbaa !60
  %30 = getelementptr inbounds nuw i8, ptr %0, i64 16
  %31 = getelementptr inbounds nuw i8, ptr %0, i64 32
  store ptr %31, ptr %0, align 8, !tbaa !57
  br label %_ZN6google8protobuf2io19EpsCopyOutputStream8WriteRawEPKviPh.exit

_ZN6google8protobuf2io19EpsCopyOutputStream8WriteRawEPKviPh.exit: ; preds = %18, %16, %20, %28
  %.0 = phi ptr [ %30, %28 ], [ %21, %20 ], [ %17, %16 ], [ %19, %18 ]
  ret ptr %.0
}